target datalayout = "e-m:e-p270:32:32-p271:32:32-p272:64:64-i64:64-i128:128-f80:128-n8:16:32:64-S128"
target triple = "x86_64-pc-linux-gnu"

%struct.PlannerGlobal = type { i32, ptr, ptr, ptr, ptr, ptr, ptr, ptr, ptr, ptr, ptr, ptr, ptr, ptr, ptr, ptr, ptr, i32, i32, i32, i8, i8, i8, i8, i8, ptr }
%struct.List = type { i32, i32, i32, ptr, [0 x %union.ListCell] }
%union.ListCell = type { ptr }
%struct.RangeTblEntry = type { i32, ptr, ptr, i32, i32, i8, i8, i32, i32, ptr, ptr, i8, i32, i32, ptr, ptr, ptr, ptr, ptr, i8, ptr, ptr, ptr, i32, i8, ptr, ptr, ptr, ptr, double, ptr, i8, i8, ptr }

; Function Attrs: inlinehint nounwind uwtable
define internal i32 @list_length(ptr noundef %0) #2 {
  %2 = alloca ptr, align 8
  store ptr %0, ptr %2, align 8
  %3 = load ptr, ptr %2, align 8
  %4 = icmp ne ptr %3, null
  br i1 %4, label %5, label %9

5:                                                ; preds = %1
  %6 = load ptr, ptr %2, align 8
  %7 = getelementptr inbounds nuw %struct.List, ptr %6, i32 0, i32 1
  %8 = load i32, ptr %7, align 4
  br label %10

9:                                                ; preds = %1
  br label %10

10:                                               ; preds = %9, %5
  %11 = phi i32 [ %8, %5 ], [ 0, %9 ]
  ret i32 %11
}

; Function Attrs: nounwind uwtable
define internal void @add_rte_to_flat_rtable(ptr noundef %0, ptr noundef %1, ptr noundef %2) #0 {
  %4 = alloca ptr, align 8
  %5 = alloca ptr, align 8
  %6 = alloca ptr, align 8
  %7 = alloca ptr, align 8
  %8 = alloca ptr, align 8
  %9 = alloca ptr, align 8
  store ptr %0, ptr %4, align 8
  store ptr %1, ptr %5, align 8
  store ptr %2, ptr %6, align 8
  call void @llvm.lifetime.start.p0(i64 8, ptr %7) #8
  %10 = call ptr @palloc(i64 noundef 224)
  store ptr %10, ptr %7, align 8
  %11 = load ptr, ptr %7, align 8
  %12 = load ptr, ptr %6, align 8
  call void @llvm.memcpy.p0.p0.i64(ptr align 8 %11, ptr align 8 %12, i64 224, i1 false)
  %13 = load ptr, ptr %7, align 8
  %14 = getelementptr inbounds nuw %struct.RangeTblEntry, ptr %13, i32 0, i32 9
  store ptr null, ptr %14, align 8
  %15 = load ptr, ptr %7, align 8
  %16 = getelementptr inbounds nuw %struct.RangeTblEntry, ptr %15, i32 0, i32 10
  store ptr null, ptr %16, align 8
  %17 = load ptr, ptr %7, align 8
  %18 = getelementptr inbounds nuw %struct.RangeTblEntry, ptr %17, i32 0, i32 14
  store ptr null, ptr %18, align 8
  %19 = load ptr, ptr %7, align 8
  %20 = getelementptr inbounds nuw %struct.RangeTblEntry, ptr %19, i32 0, i32 15
  store ptr null, ptr %20, align 8
  %21 = load ptr, ptr %7, align 8
  %22 = getelementptr inbounds nuw %struct.RangeTblEntry, ptr %21, i32 0, i32 16
  store ptr null, ptr %22, align 8
  %23 = load ptr, ptr %7, align 8
  %24 = getelementptr inbounds nuw %struct.RangeTblEntry, ptr %23, i32 0, i32 17
  store ptr null, ptr %24, align 8
  %25 = load ptr, ptr %7, align 8
  %26 = getelementptr inbounds nuw %struct.RangeTblEntry, ptr %25, i32 0, i32 18
  store ptr null, ptr %26, align 8
  %27 = load ptr, ptr %7, align 8
  %28 = getelementptr inbounds nuw %struct.RangeTblEntry, ptr %27, i32 0, i32 20
  store ptr null, ptr %28, align 8
  %29 = load ptr, ptr %7, align 8
  %30 = getelementptr inbounds nuw %struct.RangeTblEntry, ptr %29, i32 0, i32 21
  store ptr null, ptr %30, align 8
  %31 = load ptr, ptr %7, align 8
  %32 = getelementptr inbounds nuw %struct.RangeTblEntry, ptr %31, i32 0, i32 25
  store ptr null, ptr %32, align 8
  %33 = load ptr, ptr %7, align 8
  %34 = getelementptr inbounds nuw %struct.RangeTblEntry, ptr %33, i32 0, i32 26
  store ptr null, ptr %34, align 8
  %35 = load ptr, ptr %7, align 8
  %36 = getelementptr inbounds nuw %struct.RangeTblEntry, ptr %35, i32 0, i32 27
  store ptr null, ptr %36, align 8
  %37 = load ptr, ptr %7, align 8
  %38 = getelementptr inbounds nuw %struct.RangeTblEntry, ptr %37, i32 0, i32 30
  store ptr null, ptr %38, align 8
  %39 = load ptr, ptr %7, align 8
  %40 = getelementptr inbounds nuw %struct.RangeTblEntry, ptr %39, i32 0, i32 33
  store ptr null, ptr %40, align 8
  %41 = load ptr, ptr %4, align 8
  %42 = getelementptr inbounds nuw %struct.PlannerGlobal, ptr %41, i32 0, i32 6
  %43 = load ptr, ptr %42, align 8
  %44 = load ptr, ptr %7, align 8
  %45 = call ptr @lappend(ptr noundef %43, ptr noundef %44)
  %46 = load ptr, ptr %4, align 8
  %47 = getelementptr inbounds nuw %struct.PlannerGlobal, ptr %46, i32 0, i32 6
  store ptr %45, ptr %47, align 8
  %48 = load ptr, ptr %7, align 8
  %49 = getelementptr inbounds nuw %struct.RangeTblEntry, ptr %48, i32 0, i32 3
  %50 = load i32, ptr %49, align 8
  %51 = icmp eq i32 %50, 0
  br i1 %51, label %62, label %52

52:                                               ; preds = %3
  %53 = load ptr, ptr %7, align 8
  %54 = getelementptr inbounds nuw %struct.RangeTblEntry, ptr %53, i32 0, i32 3
  %55 = load i32, ptr %54, align 8
  %56 = icmp eq i32 %55, 1
  br i1 %56, label %57, label %82

57:                                               ; preds = %52
  %58 = load ptr, ptr %7, align 8
  %59 = getelementptr inbounds nuw %struct.RangeTblEntry, ptr %58, i32 0, i32 4
  %60 = load i32, ptr %59, align 4
  %61 = icmp ne i32 %60, 0
  br i1 %61, label %62, label %82

62:                                               ; preds = %57, %3
  %63 = load ptr, ptr %4, align 8
  %64 = getelementptr inbounds nuw %struct.PlannerGlobal, ptr %63, i32 0, i32 14
  %65 = load ptr, ptr %64, align 8
  %66 = load ptr, ptr %7, align 8
  %67 = getelementptr inbounds nuw %struct.RangeTblEntry, ptr %66, i32 0, i32 4
  %68 = load i32, ptr %67, align 4
  %69 = call ptr @lappend_oid(ptr noundef %65, i32 noundef %68)
  %70 = load ptr, ptr %4, align 8
  %71 = getelementptr inbounds nuw %struct.PlannerGlobal, ptr %70, i32 0, i32 14
  store ptr %69, ptr %71, align 8
  %72 = load ptr, ptr %4, align 8
  %73 = getelementptr inbounds nuw %struct.PlannerGlobal, ptr %72, i32 0, i32 7
  %74 = load ptr, ptr %73, align 8
  %75 = load ptr, ptr %4, align 8
  %76 = getelementptr inbounds nuw %struct.PlannerGlobal, ptr %75, i32 0, i32 6
  %77 = load ptr, ptr %76, align 8
  %78 = call i32 @list_length(ptr noundef %77)
  %79 = call ptr @bms_add_member(ptr noundef %74, i32 noundef %78)
  %80 = load ptr, ptr %4, align 8
  %81 = getelementptr inbounds nuw %struct.PlannerGlobal, ptr %80, i32 0, i32 7
  store ptr %79, ptr %81, align 8
  br label %82

82:                                               ; preds = %62, %57, %52
  %83 = load ptr, ptr %6, align 8
  %84 = getelementptr inbounds nuw %struct.RangeTblEntry, ptr %83, i32 0, i32 8
  %85 = load i32, ptr %84, align 8
  %86 = icmp ugt i32 %85, 0
  br i1 %86, label %87, label %99

87:                                               ; preds = %82
  call void @llvm.lifetime.start.p0(i64 8, ptr %8) #8
  call void @llvm.lifetime.start.p0(i64 8, ptr %9) #8
  %88 = load ptr, ptr %5, align 8
  %89 = load ptr, ptr %7, align 8
  %90 = call ptr @getRTEPermissionInfo(ptr noundef %88, ptr noundef %89)
  store ptr %90, ptr %8, align 8
  %91 = load ptr, ptr %7, align 8
  %92 = getelementptr inbounds nuw %struct.RangeTblEntry, ptr %91, i32 0, i32 8
  store i32 0, ptr %92, align 8
  %93 = load ptr, ptr %4, align 8
  %94 = getelementptr inbounds nuw %struct.PlannerGlobal, ptr %93, i32 0, i32 9
  %95 = load ptr, ptr %7, align 8
  %96 = call ptr @addRTEPermissionInfo(ptr noundef %94, ptr noundef %95)
  store ptr %96, ptr %9, align 8
  %97 = load ptr, ptr %9, align 8
  %98 = load ptr, ptr %8, align 8
  call void @llvm.memcpy.p0.p0.i64(ptr align 8 %97, ptr align 8 %98, i64 56, i1 false)
  call void @llvm.lifetime.end.p0(i64 8, ptr %9) #8
  call void @llvm.lifetime.end.p0(i64 8, ptr %8) #8
  br label %99

99:                                               ; preds = %87, %82
  call void @llvm.lifetime.end.p0(i64 8, ptr %7) #8
  ret void
}