; Function Attrs: nounwind uwtable
define internal fastcc void @add_rte_to_flat_rtable(ptr noundef %0, ptr noundef %1, ptr noundef readonly captures(none) %2) unnamed_addr #0 {
  %4 = tail call ptr @palloc(i64 noundef 224) #8
  tail call void @llvm.memcpy.p0.p0.i64(ptr noundef nonnull align 8 dereferenceable(224) %4, ptr noundef nonnull align 8 dereferenceable(224) %2, i64 216, i1 false)
  %5 = getelementptr inbounds nuw i8, ptr %4, i64 48
  %6 = getelementptr inbounds nuw i8, ptr %4, i64 80
  %7 = getelementptr inbounds nuw i8, ptr %4, i64 128
  %8 = getelementptr inbounds nuw i8, ptr %4, i64 160
  %9 = getelementptr inbounds nuw i8, ptr %4, i64 200
  store ptr null, ptr %9, align 8
  %10 = getelementptr inbounds nuw i8, ptr %4, i64 216
  store ptr null, ptr %10, align 8
  %11 = getelementptr inbounds nuw i8, ptr %0, i64 48
  tail call void @llvm.memset.p0.i64(ptr noundef nonnull align 8 dereferenceable(16) %5, i8 0, i64 16, i1 false)
  tail call void @llvm.memset.p0.i64(ptr noundef nonnull align 8 dereferenceable(40) %6, i8 0, i64 40, i1 false)
  tail call void @llvm.memset.p0.i64(ptr noundef nonnull align 8 dereferenceable(16) %7, i8 0, i64 16, i1 false)
  tail call void @llvm.memset.p0.i64(ptr noundef nonnull align 8 dereferenceable(24) %8, i8 0, i64 24, i1 false)
  %12 = load ptr, ptr %11, align 8
  %13 = tail call ptr @lappend(ptr noundef %12, ptr noundef nonnull %4) #8
  store ptr %13, ptr %11, align 8
  %14 = getelementptr inbounds nuw i8, ptr %4, i64 24
  %15 = load i32, ptr %14, align 8
  switch i32 %15, label %32 [
    i32 0, label %._crit_edge
    i32 1, label %16
  ]

._crit_edge:                                      ; preds = %3
  %.phi.trans.insert = getelementptr inbounds nuw i8, ptr %4, i64 28
  %.pre = load i32, ptr %.phi.trans.insert, align 4
  br label %19

16:                                               ; preds = %3
  %17 = getelementptr inbounds nuw i8, ptr %4, i64 28
  %18 = load i32, ptr %17, align 4
  %.not = icmp eq i32 %18, 0
  br i1 %.not, label %32, label %19

19:                                               ; preds = %._crit_edge, %16
  %20 = phi i32 [ %.pre, %._crit_edge ], [ %18, %16 ]
  %21 = getelementptr inbounds nuw i8, ptr %0, i64 112
  %22 = load ptr, ptr %21, align 8
  %23 = tail call ptr @lappend_oid(ptr noundef %22, i32 noundef %20) #8
  store ptr %23, ptr %21, align 8
  %24 = getelementptr inbounds nuw i8, ptr %0, i64 56
  %25 = load ptr, ptr %24, align 8
  %26 = load ptr, ptr %11, align 8
  %.not.i = icmp eq ptr %26, null
  br i1 %.not.i, label %list_length.exit, label %27

27:                                               ; preds = %19
  %28 = getelementptr inbounds nuw i8, ptr %26, i64 4
  %29 = load i32, ptr %28, align 4
  br label %list_length.exit

list_length.exit:                                 ; preds = %19, %27
  %30 = phi i32 [ %29, %27 ], [ 0, %19 ]
  %31 = tail call ptr @bms_add_member(ptr noundef %25, i32 noundef %30) #8
  store ptr %31, ptr %24, align 8
  br label %32

32:                                               ; preds = %3, %list_length.exit, %16
  %33 = getelementptr inbounds nuw i8, ptr %2, i64 40
  %34 = load i32, ptr %33, align 8
  %.not36 = icmp eq i32 %34, 0
  br i1 %.not36, label %40, label %35

35:                                               ; preds = %32
  %36 = tail call ptr @getRTEPermissionInfo(ptr noundef %1, ptr noundef nonnull %4) #8
  %37 = getelementptr inbounds nuw i8, ptr %4, i64 40
  store i32 0, ptr %37, align 8
  %38 = getelementptr inbounds nuw i8, ptr %0, i64 72
  %39 = tail call ptr @addRTEPermissionInfo(ptr noundef nonnull %38, ptr noundef nonnull %4) #8
  tail call void @llvm.memcpy.p0.p0.i64(ptr noundef nonnull align 8 dereferenceable(56) %39, ptr noundef nonnull align 8 dereferenceable(56) %36, i64 56, i1 false)
  br label %40

40:                                               ; preds = %35, %32
  ret void
}